target datalayout = "e-m:e-p270:32:32-p271:32:32-p272:64:64-i64:64-i128:128-f80:128-n8:16:32:64-S128"
target triple = "x86_64-pc-linux-gnu"

%class.LinearSequence = type <{ %class.Sequence, %"class.std::map", i8, [7 x i8] }>
%class.Sequence = type { ptr }
%"class.std::map" = type { %"class.std::_Rb_tree" }
%"class.std::_Rb_tree" = type { %"struct.std::_Rb_tree<int, std::pair<const int, int>, std::_Select1st<std::pair<const int, int>>, std::less<int>>::_Rb_tree_impl" }
%"struct.std::_Rb_tree<int, std::pair<const int, int>, std::_Select1st<std::pair<const int, int>>, std::less<int>>::_Rb_tree_impl" = type { %"struct.std::_Rb_tree_key_compare", %"struct.std::_Rb_tree_header" }
%"struct.std::_Rb_tree_key_compare" = type { %"struct.std::less" }
%"struct.std::less" = type { i8 }
%"struct.std::_Rb_tree_header" = type { %"struct.std::_Rb_tree_node_base", i64 }
%"struct.std::_Rb_tree_node_base" = type { i32, ptr, ptr, ptr }

; Function Attrs: mustprogress nounwind uwtable
define linkonce_odr dso_local noundef i64 @_ZNKSt8_Rb_treeIiSt4pairIKiiESt10_Select1stIS2_ESt4lessIiESaIS2_EE4sizeEv(ptr noundef nonnull align 8 dereferenceable(48) %0) #5 comdat align 2 {
  %2 = alloca ptr, align 8
  store ptr %0, ptr %2, align 8
  %3 = load ptr, ptr %2, align 8
  %4 = getelementptr inbounds %"class.std::_Rb_tree", ptr %3, i32 0, i32 0
  %5 = getelementptr inbounds i8, ptr %4, i64 8
  %6 = getelementptr inbounds %"struct.std::_Rb_tree_header", ptr %5, i32 0, i32 1
  %7 = load i64, ptr %6, align 8
  ret i64 %7
}

; Function Attrs: mustprogress nounwind uwtable
define linkonce_odr dso_local noundef i64 @_ZNKSt3mapIiiSt4lessIiESaISt4pairIKiiEEE4sizeEv(ptr noundef nonnull align 8 dereferenceable(48) %0) #5 comdat align 2 {
  %2 = alloca ptr, align 8
  store ptr %0, ptr %2, align 8
  %3 = load ptr, ptr %2, align 8
  %4 = getelementptr inbounds %"class.std::map", ptr %3, i32 0, i32 0
  %5 = call noundef i64 @_ZNKSt8_Rb_treeIiSt4pairIKiiESt10_Select1stIS2_ESt4lessIiESaIS2_EE4sizeEv(ptr noundef nonnull align 8 dereferenceable(48) %4) #3
  ret i64 %5
}

; Function Attrs: mustprogress uwtable
define dso_local void @_ZN14LinearSequence12get_sequenceERSo(ptr noundef nonnull align 8 dereferenceable(57) %0, ptr noundef nonnull align 8 dereferenceable(8) %1) unnamed_addr #4 align 2 {
  %3 = alloca ptr, align 8
  %4 = alloca ptr, align 8
  %5 = alloca i64, align 8
  %6 = alloca i32, align 4
  %7 = alloca i32, align 4
  store ptr %0, ptr %3, align 8
  store ptr %1, ptr %4, align 8
  %8 = load ptr, ptr %3, align 8
  store i64 0, ptr %5, align 8
  store i64 0, ptr %5, align 8
  br label %9

9:                                                ; preds = %26, %2
  %10 = load i64, ptr %5, align 8
  %11 = getelementptr inbounds %class.LinearSequence, ptr %8, i32 0, i32 1
  %12 = call noundef i64 @_ZNKSt3mapIiiSt4lessIiESaISt4pairIKiiEEE4sizeEv(ptr noundef nonnull align 8 dereferenceable(48) %11) #3
  %13 = sub i64 %12, 1
  %14 = icmp ult i64 %10, %13
  br i1 %14, label %15, label %29

15:                                               ; preds = %9
  %16 = load ptr, ptr %4, align 8
  %17 = getelementptr inbounds %class.LinearSequence, ptr %8, i32 0, i32 1
  %18 = load i64, ptr %5, align 8
  %19 = trunc i64 %18 to i32
  store i32 %19, ptr %6, align 4
  %20 = call noundef nonnull align 4 dereferenceable(4) ptr @_ZNSt3mapIiiSt4lessIiESaISt4pairIKiiEEEixEOi(ptr noundef nonnull align 8 dereferenceable(48) %17, ptr noundef nonnull align 4 dereferenceable(4) %6)
  %21 = load i32, ptr %20, align 4
  %22 = call noundef nonnull align 8 dereferenceable(8) ptr @_ZNSolsEi(ptr noundef nonnull align 8 dereferenceable(8) %16, i32 noundef %21)
  %23 = getelementptr inbounds %class.LinearSequence, ptr %8, i32 0, i32 2
  %24 = load i8, ptr %23, align 8
  %25 = call noundef nonnull align 8 dereferenceable(8) ptr @_ZStlsISt11char_traitsIcEERSt13basic_ostreamIcT_ES5_c(ptr noundef nonnull align 8 dereferenceable(8) %22, i8 noundef signext %24)
  br label %26

26:                                               ; preds = %15
  %27 = load i64, ptr %5, align 8
  %28 = add i64 %27, 1
  store i64 %28, ptr %5, align 8
  br label %9, !llvm.loop !5

29:                                               ; preds = %9
  %30 = load ptr, ptr %4, align 8
  %31 = getelementptr inbounds %class.LinearSequence, ptr %8, i32 0, i32 1
  %32 = load i64, ptr %5, align 8
  %33 = trunc i64 %32 to i32
  store i32 %33, ptr %7, align 4
  %34 = call noundef nonnull align 4 dereferenceable(4) ptr @_ZNSt3mapIiiSt4lessIiESaISt4pairIKiiEEEixEOi(ptr noundef nonnull align 8 dereferenceable(48) %31, ptr noundef nonnull align 4 dereferenceable(4) %7)
  %35 = load i32, ptr %34, align 4
  %36 = call noundef nonnull align 8 dereferenceable(8) ptr @_ZNSolsEi(ptr noundef nonnull align 8 dereferenceable(8) %30, i32 noundef %35)
  ret void
}