; Function Attrs: mustprogress uwtable
define dso_local void @_ZN14LinearSequence12get_sequenceERSo(ptr noundef nonnull align 8 dereferenceable(57) %0, ptr noundef nonnull align 8 dereferenceable(8) %1) unnamed_addr #3 align 2 {
  %3 = alloca i32, align 4
  %4 = alloca i32, align 4
  %5 = getelementptr inbounds i8, ptr %0, i64 8
  %6 = getelementptr inbounds i8, ptr %0, i64 48
  %7 = load i64, ptr %6, align 8
  %.not = icmp eq i64 %7, 1
  br i1 %.not, label %._crit_edge, label %.lr.ph

.lr.ph:                                           ; preds = %2
  %8 = getelementptr inbounds i8, ptr %0, i64 56
  br label %9

9:                                                ; preds = %.lr.ph, %9
  %.06 = phi i64 [ 0, %.lr.ph ], [ %16, %9 ]
  %10 = trunc i64 %.06 to i32
  store i32 %10, ptr %3, align 4
  %11 = call noundef nonnull align 4 dereferenceable(4) ptr @_ZNSt3mapIiiSt4lessIiESaISt4pairIKiiEEEixEOi(ptr noundef nonnull align 8 dereferenceable(48) %5, ptr noundef nonnull align 4 dereferenceable(4) %3)
  %12 = load i32, ptr %11, align 4
  %13 = call noundef nonnull align 8 dereferenceable(8) ptr @_ZNSolsEi(ptr noundef nonnull align 8 dereferenceable(8) %1, i32 noundef %12)
  %14 = load i8, ptr %8, align 8
  %15 = call noundef nonnull align 8 dereferenceable(8) ptr @_ZStlsISt11char_traitsIcEERSt13basic_ostreamIcT_ES5_c(ptr noundef nonnull align 8 dereferenceable(8) %13, i8 noundef signext %14)
  %16 = add nuw i64 %.06, 1
  %17 = load i64, ptr %6, align 8
  %18 = add i64 %17, -1
  %19 = icmp ult i64 %16, %18
  br i1 %19, label %9, label %._crit_edge.loopexit, !llvm.loop !7

._crit_edge.loopexit:                             ; preds = %9
  %20 = trunc i64 %16 to i32
  br label %._crit_edge

._crit_edge:                                      ; preds = %._crit_edge.loopexit, %2
  %.0.lcssa = phi i32 [ 0, %2 ], [ %20, %._crit_edge.loopexit ]
  store i32 %.0.lcssa, ptr %4, align 4
  %21 = call noundef nonnull align 4 dereferenceable(4) ptr @_ZNSt3mapIiiSt4lessIiESaISt4pairIKiiEEEixEOi(ptr noundef nonnull align 8 dereferenceable(48) %5, ptr noundef nonnull align 4 dereferenceable(4) %4)
  %22 = load i32, ptr %21, align 4
  %23 = call noundef nonnull align 8 dereferenceable(8) ptr @_ZNSolsEi(ptr noundef nonnull align 8 dereferenceable(8) %1, i32 noundef %22)
  ret void
}